target datalayout = "e-m:e-p270:32:32-p271:32:32-p272:64:64-i64:64-i128:128-f80:128-n8:16:32:64-S128"
target triple = "x86_64-pc-linux-gnu"

%struct.lua_State = type { i8, i8, i8, i8, i8, i8, i8, ptr, ptr, ptr, ptr, ptr, ptr, ptr, ptr, i32, i32, i16, i16, i32, ptr, ptr, ptr, ptr, ptr }
%struct.global_State = type { %struct.stringtable, ptr, ptr, i8, i8, ptr, ptr, ptr, i64, i64, i32, i32, i32, [40 x ptr], [40 x ptr], ptr, ptr, ptr, [256 x i64], ptr, %struct.UpVal, [11 x ptr], [11 x ptr], [21 x ptr], %struct.lua_TValue, %struct.lua_TValue, i32, ptr, i64, [4 x i64], %struct.lua_Callbacks, %struct.lua_ExecutionCallbacks, [128 x ptr], [128 x ptr], [128 x ptr], %struct.GCStats }
%struct.stringtable = type { ptr, i32, i32 }
%struct.UpVal = type { i8, i8, i8, i8, ptr, %union.anon }
%union.anon = type { %struct.anon }
%struct.anon = type { ptr, ptr, ptr }
%struct.lua_TValue = type { %union.Value, [1 x i32], i32 }
%union.Value = type { ptr }
%struct.lua_Callbacks = type { ptr, ptr, ptr, ptr, ptr, ptr, ptr, ptr, ptr, ptr }
%struct.lua_ExecutionCallbacks = type { ptr, ptr, ptr, ptr, ptr, ptr, ptr }
%struct.GCStats = type { [32 x i32], i32, i32, i64, i64, i64, double, double, double }

; Function Attrs: mustprogress nounwind uwtable
define internal noundef ptr @_ZN4Luau7CodeGenL17getCodeGenContextEP9lua_State(ptr noundef %0) #1 {
  %2 = alloca ptr, align 8
  store ptr %0, ptr %2, align 8, !tbaa !214
  %3 = load ptr, ptr %2, align 8, !tbaa !214
  %4 = getelementptr inbounds nuw %struct.lua_State, ptr %3, i32 0, i32 9
  %5 = load ptr, ptr %4, align 8, !tbaa !219
  %6 = getelementptr inbounds nuw %struct.global_State, ptr %5, i32 0, i32 31
  %7 = getelementptr inbounds nuw %struct.lua_ExecutionCallbacks, ptr %6, i32 0, i32 0
  %8 = load ptr, ptr %7, align 8, !tbaa !294
  ret ptr %8
}

; Function Attrs: mustprogress nounwind uwtable
define dso_local void @_ZN4Luau7CodeGen25setNativeExecutionEnabledEP9lua_Stateb(ptr noundef %0, i1 noundef zeroext %1) #1 {
  %3 = alloca ptr, align 8
  %4 = alloca i8, align 1
  store ptr %0, ptr %3, align 8, !tbaa !214
  %5 = zext i1 %1 to i8
  store i8 %5, ptr %4, align 1, !tbaa !13
  %6 = load ptr, ptr %3, align 8, !tbaa !214
  %7 = call noundef ptr @_ZN4Luau7CodeGenL17getCodeGenContextEP9lua_State(ptr noundef %6) #17
  %8 = icmp ne ptr %7, null
  br i1 %8, label %9, label %21

9:                                                ; preds = %2
  %10 = load i8, ptr %4, align 1, !tbaa !13, !range !17, !noundef !18
  %11 = trunc i8 %10 to i1
  br i1 %11, label %12, label %13

12:                                               ; preds = %9
  br label %14

13:                                               ; preds = %9
  br label %14

14:                                               ; preds = %13, %12
  %15 = phi ptr [ @_ZN4Luau7CodeGenL7onEnterEP9lua_StateP5Proto, %12 ], [ @_ZN4Luau7CodeGenL15onEnterDisabledEP9lua_StateP5Proto, %13 ]
  %16 = load ptr, ptr %3, align 8, !tbaa !214
  %17 = getelementptr inbounds nuw %struct.lua_State, ptr %16, i32 0, i32 9
  %18 = load ptr, ptr %17, align 8, !tbaa !219
  %19 = getelementptr inbounds nuw %struct.global_State, ptr %18, i32 0, i32 31
  %20 = getelementptr inbounds nuw %struct.lua_ExecutionCallbacks, ptr %19, i32 0, i32 3
  store ptr %15, ptr %20, align 8, !tbaa !284
  br label %21

21:                                               ; preds = %14, %2
  ret void
}