; Function Attrs: mustprogress nofree norecurse nosync nounwind willreturn memory(readwrite, inaccessiblemem: none) uwtable
define dso_local void @_ZN4Luau7CodeGen25setNativeExecutionEnabledEP9lua_Stateb(ptr noundef readonly captures(none) %0, i1 noundef zeroext %1) local_unnamed_addr #12 {
  %3 = getelementptr i8, ptr %0, i64 24
  %.val = load ptr, ptr %3, align 8, !tbaa !121
  %4 = getelementptr i8, ptr %.val, i64 3368
  %.val.val = load ptr, ptr %4, align 8, !tbaa !148
  %.not = icmp eq ptr %.val.val, null
  br i1 %.not, label %7, label %5

5:                                                ; preds = %2
  %_ZN4Luau7CodeGenL7onEnterEP9lua_StateP5Proto._ZN4Luau7CodeGenL15onEnterDisabledEP9lua_StateP5Proto = select i1 %1, ptr @_ZN4Luau7CodeGenL7onEnterEP9lua_StateP5Proto, ptr @_ZN4Luau7CodeGenL15onEnterDisabledEP9lua_StateP5Proto
  %6 = getelementptr inbounds nuw i8, ptr %.val, i64 3392
  store ptr %_ZN4Luau7CodeGenL7onEnterEP9lua_StateP5Proto._ZN4Luau7CodeGenL15onEnterDisabledEP9lua_StateP5Proto, ptr %6, align 8, !tbaa !312
  br label %7

7:                                                ; preds = %5, %2
  ret void
}